target datalayout = "e-m:e-p270:32:32-p271:32:32-p272:64:64-i64:64-i128:128-f80:128-n8:16:32:64-S128"
target triple = "x86_64-pc-linux-gnu"

%struct.SUNHashMap_ = type { i32, i32, ptr }
%struct.SUNHashMapKeyValue_ = type { ptr, ptr }

; Function Attrs: nounwind uwtable
define i32 @SUNHashMap_Destroy(ptr noundef %0, ptr noundef %1) #0 {
  %3 = alloca i32, align 4
  %4 = alloca ptr, align 8
  %5 = alloca ptr, align 8
  %6 = alloca i32, align 4
  %7 = alloca i32, align 4
  store ptr %0, ptr %4, align 8, !tbaa !7
  store ptr %1, ptr %5, align 8, !tbaa !19
  call void @llvm.lifetime.start.p0(i64 4, ptr %6) #6
  %8 = load ptr, ptr %4, align 8, !tbaa !7
  %9 = icmp eq ptr %8, null
  br i1 %9, label %13, label %10

10:                                               ; preds = %2
  %11 = load ptr, ptr %5, align 8, !tbaa !19
  %12 = icmp eq ptr %11, null
  br i1 %12, label %13, label %14

13:                                               ; preds = %10, %2
  store i32 0, ptr %3, align 4
  store i32 1, ptr %7, align 4
  br label %99

14:                                               ; preds = %10
  store i32 0, ptr %6, align 4, !tbaa !3
  br label %15

15:                                               ; preds = %76, %14
  %16 = load i32, ptr %6, align 4, !tbaa !3
  %17 = load ptr, ptr %4, align 8, !tbaa !7
  %18 = load ptr, ptr %17, align 8, !tbaa !10
  %19 = getelementptr inbounds nuw %struct.SUNHashMap_, ptr %18, i32 0, i32 1
  %20 = load i32, ptr %19, align 4, !tbaa !15
  %21 = icmp slt i32 %16, %20
  br i1 %21, label %22, label %79

22:                                               ; preds = %15
  %23 = load ptr, ptr %4, align 8, !tbaa !7
  %24 = load ptr, ptr %23, align 8, !tbaa !10
  %25 = getelementptr inbounds nuw %struct.SUNHashMap_, ptr %24, i32 0, i32 2
  %26 = load ptr, ptr %25, align 8, !tbaa !16
  %27 = load i32, ptr %6, align 4, !tbaa !3
  %28 = sext i32 %27 to i64
  %29 = getelementptr inbounds ptr, ptr %26, i64 %28
  %30 = load ptr, ptr %29, align 8, !tbaa !17
  %31 = icmp ne ptr %30, null
  br i1 %31, label %32, label %56

32:                                               ; preds = %22
  %33 = load ptr, ptr %4, align 8, !tbaa !7
  %34 = load ptr, ptr %33, align 8, !tbaa !10
  %35 = getelementptr inbounds nuw %struct.SUNHashMap_, ptr %34, i32 0, i32 2
  %36 = load ptr, ptr %35, align 8, !tbaa !16
  %37 = load i32, ptr %6, align 4, !tbaa !3
  %38 = sext i32 %37 to i64
  %39 = getelementptr inbounds ptr, ptr %36, i64 %38
  %40 = load ptr, ptr %39, align 8, !tbaa !17
  %41 = getelementptr inbounds nuw %struct.SUNHashMapKeyValue_, ptr %40, i32 0, i32 1
  %42 = load ptr, ptr %41, align 8, !tbaa !20
  %43 = icmp ne ptr %42, null
  br i1 %43, label %44, label %56

44:                                               ; preds = %32
  %45 = load ptr, ptr %5, align 8, !tbaa !19
  %46 = load ptr, ptr %4, align 8, !tbaa !7
  %47 = load ptr, ptr %46, align 8, !tbaa !10
  %48 = getelementptr inbounds nuw %struct.SUNHashMap_, ptr %47, i32 0, i32 2
  %49 = load ptr, ptr %48, align 8, !tbaa !16
  %50 = load i32, ptr %6, align 4, !tbaa !3
  %51 = sext i32 %50 to i64
  %52 = getelementptr inbounds ptr, ptr %49, i64 %51
  %53 = load ptr, ptr %52, align 8, !tbaa !17
  %54 = getelementptr inbounds nuw %struct.SUNHashMapKeyValue_, ptr %53, i32 0, i32 1
  %55 = load ptr, ptr %54, align 8, !tbaa !20
  call void %45(ptr noundef %55)
  br label %56

56:                                               ; preds = %44, %32, %22
  %57 = load ptr, ptr %4, align 8, !tbaa !7
  %58 = load ptr, ptr %57, align 8, !tbaa !10
  %59 = getelementptr inbounds nuw %struct.SUNHashMap_, ptr %58, i32 0, i32 2
  %60 = load ptr, ptr %59, align 8, !tbaa !16
  %61 = load i32, ptr %6, align 4, !tbaa !3
  %62 = sext i32 %61 to i64
  %63 = getelementptr inbounds ptr, ptr %60, i64 %62
  %64 = load ptr, ptr %63, align 8, !tbaa !17
  %65 = icmp ne ptr %64, null
  br i1 %65, label %66, label %75

66:                                               ; preds = %56
  %67 = load ptr, ptr %4, align 8, !tbaa !7
  %68 = load ptr, ptr %67, align 8, !tbaa !10
  %69 = getelementptr inbounds nuw %struct.SUNHashMap_, ptr %68, i32 0, i32 2
  %70 = load ptr, ptr %69, align 8, !tbaa !16
  %71 = load i32, ptr %6, align 4, !tbaa !3
  %72 = sext i32 %71 to i64
  %73 = getelementptr inbounds ptr, ptr %70, i64 %72
  %74 = load ptr, ptr %73, align 8, !tbaa !17
  call void @free(ptr noundef %74) #6
  br label %75

75:                                               ; preds = %66, %56
  br label %76

76:                                               ; preds = %75
  %77 = load i32, ptr %6, align 4, !tbaa !3
  %78 = add nsw i32 %77, 1
  store i32 %78, ptr %6, align 4, !tbaa !3
  br label %15

79:                                               ; preds = %15
  %80 = load ptr, ptr %4, align 8, !tbaa !7
  %81 = load ptr, ptr %80, align 8, !tbaa !10
  %82 = getelementptr inbounds nuw %struct.SUNHashMap_, ptr %81, i32 0, i32 2
  %83 = load ptr, ptr %82, align 8, !tbaa !16
  %84 = icmp ne ptr %83, null
  br i1 %84, label %85, label %90

85:                                               ; preds = %79
  %86 = load ptr, ptr %4, align 8, !tbaa !7
  %87 = load ptr, ptr %86, align 8, !tbaa !10
  %88 = getelementptr inbounds nuw %struct.SUNHashMap_, ptr %87, i32 0, i32 2
  %89 = load ptr, ptr %88, align 8, !tbaa !16
  call void @free(ptr noundef %89) #6
  br label %90

90:                                               ; preds = %85, %79
  %91 = load ptr, ptr %4, align 8, !tbaa !7
  %92 = load ptr, ptr %91, align 8, !tbaa !10
  %93 = icmp ne ptr %92, null
  br i1 %93, label %94, label %97

94:                                               ; preds = %90
  %95 = load ptr, ptr %4, align 8, !tbaa !7
  %96 = load ptr, ptr %95, align 8, !tbaa !10
  call void @free(ptr noundef %96) #6
  br label %97

97:                                               ; preds = %94, %90
  %98 = load ptr, ptr %4, align 8, !tbaa !7
  store ptr null, ptr %98, align 8, !tbaa !10
  store i32 0, ptr %3, align 4
  store i32 1, ptr %7, align 4
  br label %99

99:                                               ; preds = %97, %13
  call void @llvm.lifetime.end.p0(i64 4, ptr %6) #6
  %100 = load i32, ptr %3, align 4
  ret i32 %100
}