; Function Attrs: nounwind uwtable
define noundef i32 @SUNHashMap_Destroy(ptr noundef captures(address_is_null) %0, ptr noundef readonly captures(address_is_null) %1) local_unnamed_addr #3 {
  %3 = icmp eq ptr %0, null
  %4 = icmp eq ptr %1, null
  %or.cond = or i1 %3, %4
  br i1 %or.cond, label %29, label %.preheader

.preheader:                                       ; preds = %2
  %5 = load ptr, ptr %0, align 8, !tbaa !3
  %6 = getelementptr inbounds nuw i8, ptr %5, i64 4
  %7 = load i32, ptr %6, align 4, !tbaa !12
  %8 = icmp sgt i32 %7, 0
  br i1 %8, label %.lr.ph, label %._crit_edge

.lr.ph:                                           ; preds = %.preheader, %.thread
  %9 = phi ptr [ %19, %.thread ], [ %5, %.preheader ]
  %indvars.iv = phi i64 [ %indvars.iv.next, %.thread ], [ 0, %.preheader ]
  %10 = getelementptr inbounds nuw i8, ptr %9, i64 8
  %11 = load ptr, ptr %10, align 8, !tbaa !13
  %12 = getelementptr inbounds nuw ptr, ptr %11, i64 %indvars.iv
  %13 = load ptr, ptr %12, align 8, !tbaa !14
  %.not31 = icmp eq ptr %13, null
  br i1 %.not31, label %.thread, label %14

14:                                               ; preds = %.lr.ph
  %15 = getelementptr inbounds nuw i8, ptr %13, i64 8
  %16 = load ptr, ptr %15, align 8, !tbaa !16
  %.not32 = icmp eq ptr %16, null
  br i1 %.not32, label %.thread43, label %17

17:                                               ; preds = %14
  tail call void %1(ptr noundef nonnull %16) #10
  %.pre = load ptr, ptr %0, align 8, !tbaa !3
  %.phi.trans.insert = getelementptr inbounds nuw i8, ptr %.pre, i64 8
  %.pre37 = load ptr, ptr %.phi.trans.insert, align 8, !tbaa !13
  %.phi.trans.insert38 = getelementptr inbounds nuw ptr, ptr %.pre37, i64 %indvars.iv
  %.pre39 = load ptr, ptr %.phi.trans.insert38, align 8, !tbaa !14
  %.not33 = icmp eq ptr %.pre39, null
  br i1 %.not33, label %.thread, label %.thread43

.thread43:                                        ; preds = %14, %17
  %18 = phi ptr [ %.pre39, %17 ], [ %13, %14 ]
  tail call void @free(ptr noundef nonnull %18) #10
  %.pre40 = load ptr, ptr %0, align 8, !tbaa !3
  br label %.thread

.thread:                                          ; preds = %.lr.ph, %17, %.thread43
  %19 = phi ptr [ %.pre, %17 ], [ %.pre40, %.thread43 ], [ %9, %.lr.ph ]
  %indvars.iv.next = add nuw nsw i64 %indvars.iv, 1
  %20 = getelementptr inbounds nuw i8, ptr %19, i64 4
  %21 = load i32, ptr %20, align 4, !tbaa !12
  %22 = sext i32 %21 to i64
  %23 = icmp slt i64 %indvars.iv.next, %22
  br i1 %23, label %.lr.ph, label %._crit_edge

._crit_edge:                                      ; preds = %.thread, %.preheader
  %.lcssa = phi ptr [ %5, %.preheader ], [ %19, %.thread ]
  %24 = getelementptr inbounds nuw i8, ptr %.lcssa, i64 8
  %25 = load ptr, ptr %24, align 8, !tbaa !13
  %.not = icmp eq ptr %25, null
  br i1 %.not, label %.thread45, label %26

26:                                               ; preds = %._crit_edge
  tail call void @free(ptr noundef nonnull %25) #10
  %.pre41 = load ptr, ptr %0, align 8, !tbaa !3
  %.not30 = icmp eq ptr %.pre41, null
  br i1 %.not30, label %28, label %.thread45

.thread45:                                        ; preds = %._crit_edge, %26
  %27 = phi ptr [ %.pre41, %26 ], [ %.lcssa, %._crit_edge ]
  tail call void @free(ptr noundef nonnull %27) #10
  br label %28

28:                                               ; preds = %.thread45, %26
  store ptr null, ptr %0, align 8, !tbaa !3
  br label %29

29:                                               ; preds = %2, %28
  ret i32 0
}